target datalayout = "e-m:e-p270:32:32-p271:32:32-p272:64:64-i64:64-i128:128-f80:128-n8:16:32:64-S128"
target triple = "x86_64-pc-linux-gnu"

%"class.ncnn::Mat" = type { ptr, ptr, i64, i32, ptr, i32, i32, i32, i32, i32, i64 }
%"class.ncnn::Option" = type { i8, i32, ptr, ptr, i32, i8, i8, i8, i8, i8, i8, i8, i8, i8, i8, i8, i8, i8, i8, i8, i8, i8, i8, i8, i8, i32, i8, i8, i8, i8, i8, i8, i8, i8, i8, i8, i8, i8 }

; Function Attrs: mustprogress nounwind uwtable
define linkonce_odr noundef nofpclass(nan inf) float @_ZSt5roundf(float noundef nofpclass(nan inf) %0) #9 comdat {
  %2 = alloca float, align 4
  store float %0, ptr %2, align 4, !tbaa !45
  %3 = load float, ptr %2, align 4, !tbaa !45
  %4 = call fast float @llvm.round.f32(float %3)
  ret float %4
}

; Function Attrs: inlinehint mustprogress uwtable
define internal noundef signext i8 @_ZN4ncnnL10float2int8Ef(float noundef nofpclass(nan inf) %0) #12 {
  %2 = alloca i8, align 1
  %3 = alloca float, align 4
  %4 = alloca i32, align 4
  %5 = alloca i32, align 4
  store float %0, ptr %3, align 4, !tbaa !45
  call void @llvm.lifetime.start.p0(i64 4, ptr %4) #11
  %6 = load float, ptr %3, align 4, !tbaa !45
  %7 = call fast noundef nofpclass(nan inf) float @_ZSt5roundf(float noundef nofpclass(nan inf) %6)
  %8 = fptosi float %7 to i32
  store i32 %8, ptr %4, align 4, !tbaa !44
  %9 = load i32, ptr %4, align 4, !tbaa !44
  %10 = icmp sgt i32 %9, 127
  br i1 %10, label %11, label %12

11:                                               ; preds = %1
  store i8 127, ptr %2, align 1
  store i32 1, ptr %5, align 4
  br label %19

12:                                               ; preds = %1
  %13 = load i32, ptr %4, align 4, !tbaa !44
  %14 = icmp slt i32 %13, -127
  br i1 %14, label %15, label %16

15:                                               ; preds = %12
  store i8 -127, ptr %2, align 1
  store i32 1, ptr %5, align 4
  br label %19

16:                                               ; preds = %12
  %17 = load i32, ptr %4, align 4, !tbaa !44
  %18 = trunc i32 %17 to i8
  store i8 %18, ptr %2, align 1
  store i32 1, ptr %5, align 4
  br label %19

19:                                               ; preds = %16, %15, %11
  call void @llvm.lifetime.end.p0(i64 4, ptr %4) #11
  %20 = load i8, ptr %2, align 1
  ret i8 %20
}

; Function Attrs: alwaysinline mustprogress nounwind uwtable
define linkonce_odr hidden noundef ptr @_ZN4ncnn3Mat3rowIaEEPT_i(ptr noundef nonnull align 8 dereferenceable(72) %0, i32 noundef %1) #3 comdat align 2 {
  %3 = alloca ptr, align 8
  %4 = alloca i32, align 4
  store ptr %0, ptr %3, align 8, !tbaa !51
  store i32 %1, ptr %4, align 4, !tbaa !44
  %5 = load ptr, ptr %3, align 8
  %6 = getelementptr inbounds nuw %"class.ncnn::Mat", ptr %5, i32 0, i32 0
  %7 = load ptr, ptr %6, align 8, !tbaa !57
  %8 = getelementptr inbounds nuw %"class.ncnn::Mat", ptr %5, i32 0, i32 6
  %9 = load i32, ptr %8, align 4, !tbaa !63
  %10 = sext i32 %9 to i64
  %11 = load i32, ptr %4, align 4, !tbaa !44
  %12 = sext i32 %11 to i64
  %13 = mul i64 %10, %12
  %14 = getelementptr inbounds nuw %"class.ncnn::Mat", ptr %5, i32 0, i32 2
  %15 = load i64, ptr %14, align 8, !tbaa !59
  %16 = mul i64 %13, %15
  %17 = getelementptr inbounds nuw i8, ptr %7, i64 %16
  ret ptr %17
}

; Function Attrs: alwaysinline mustprogress nounwind uwtable
define linkonce_odr hidden noundef nonnull align 4 dereferenceable(4) ptr @_ZN4ncnn3MatixEm(ptr noundef nonnull align 8 dereferenceable(72) %0, i64 noundef %1) #3 comdat align 2 {
  %3 = alloca ptr, align 8
  %4 = alloca i64, align 8
  store ptr %0, ptr %3, align 8, !tbaa !51
  store i64 %1, ptr %4, align 8, !tbaa !68
  %5 = load ptr, ptr %3, align 8
  %6 = getelementptr inbounds nuw %"class.ncnn::Mat", ptr %5, i32 0, i32 0
  %7 = load ptr, ptr %6, align 8, !tbaa !57
  %8 = load i64, ptr %4, align 8, !tbaa !68
  %9 = getelementptr inbounds nuw float, ptr %7, i64 %8
  ret ptr %9
}

; Function Attrs: inlinehint mustprogress nounwind uwtable
define linkonce_odr noundef nonnull align 4 dereferenceable(4) ptr @_ZSt3maxIfERKT_S2_S2_(ptr noundef nonnull align 4 dereferenceable(4) %0, ptr noundef nonnull align 4 dereferenceable(4) %1) #0 comdat {
  %3 = alloca ptr, align 8
  %4 = alloca ptr, align 8
  %5 = alloca ptr, align 8
  store ptr %0, ptr %4, align 8, !tbaa !69
  store ptr %1, ptr %5, align 8, !tbaa !69
  %6 = load ptr, ptr %4, align 8, !tbaa !69
  %7 = load float, ptr %6, align 4, !tbaa !45
  %8 = load ptr, ptr %5, align 8, !tbaa !69
  %9 = load float, ptr %8, align 4, !tbaa !45
  %10 = fcmp fast olt float %7, %9
  br i1 %10, label %11, label %13

11:                                               ; preds = %2
  %12 = load ptr, ptr %5, align 8, !tbaa !69
  store ptr %12, ptr %3, align 8
  br label %15

13:                                               ; preds = %2
  %14 = load ptr, ptr %4, align 8, !tbaa !69
  store ptr %14, ptr %3, align 8
  br label %15

15:                                               ; preds = %13, %11
  %16 = load ptr, ptr %3, align 8
  ret ptr %16
}

; Function Attrs: inlinehint mustprogress nounwind uwtable
define linkonce_odr noundef nofpclass(nan inf) float @_ZSt4fabsf(float noundef nofpclass(nan inf) %0) #0 comdat {
  %2 = alloca float, align 4
  store float %0, ptr %2, align 4, !tbaa !45
  %3 = load float, ptr %2, align 4, !tbaa !45
  %4 = call fast float @llvm.fabs.f32(float %3)
  ret float %4
}

; Function Attrs: alwaysinline mustprogress nounwind uwtable
define linkonce_odr hidden noundef ptr @_ZNK4ncnn3Mat3rowEi(ptr noundef nonnull align 8 dereferenceable(72) %0, i32 noundef %1) #3 comdat align 2 {
  %3 = alloca ptr, align 8
  %4 = alloca i32, align 4
  store ptr %0, ptr %3, align 8, !tbaa !51
  store i32 %1, ptr %4, align 4, !tbaa !44
  %5 = load ptr, ptr %3, align 8
  %6 = getelementptr inbounds nuw %"class.ncnn::Mat", ptr %5, i32 0, i32 0
  %7 = load ptr, ptr %6, align 8, !tbaa !57
  %8 = getelementptr inbounds nuw %"class.ncnn::Mat", ptr %5, i32 0, i32 6
  %9 = load i32, ptr %8, align 4, !tbaa !63
  %10 = sext i32 %9 to i64
  %11 = load i32, ptr %4, align 4, !tbaa !44
  %12 = sext i32 %11 to i64
  %13 = mul i64 %10, %12
  %14 = getelementptr inbounds nuw %"class.ncnn::Mat", ptr %5, i32 0, i32 2
  %15 = load i64, ptr %14, align 8, !tbaa !59
  %16 = mul i64 %13, %15
  %17 = getelementptr inbounds nuw i8, ptr %7, i64 %16
  ret ptr %17
}

; Function Attrs: mustprogress uwtable
define internal void @_ZN4ncnnL25dynamic_quantize_2d_per_hERKNS_3MatERS0_S3_RKNS_6OptionE(ptr noundef nonnull align 8 dereferenceable(72) %0, ptr noundef nonnull align 8 dereferenceable(72) %1, ptr noundef nonnull align 8 dereferenceable(72) %2, ptr noundef nonnull align 8 dereferenceable(64) %3) #1 {
  %5 = alloca ptr, align 8
  %6 = alloca ptr, align 8
  %7 = alloca ptr, align 8
  %8 = alloca ptr, align 8
  %9 = alloca i32, align 4
  %10 = alloca i32, align 4
  %11 = alloca ptr, align 8
  %12 = alloca float, align 4
  %13 = alloca i32, align 4
  %14 = alloca float, align 4
  %15 = alloca i32, align 4
  %16 = alloca ptr, align 8
  %17 = alloca ptr, align 8
  %18 = alloca float, align 4
  %19 = alloca i32, align 4
  store ptr %0, ptr %5, align 8, !tbaa !51
  store ptr %1, ptr %6, align 8, !tbaa !51
  store ptr %2, ptr %7, align 8, !tbaa !51
  store ptr %3, ptr %8, align 8, !tbaa !49
  %20 = load ptr, ptr %6, align 8, !tbaa !51
  %21 = load ptr, ptr %5, align 8, !tbaa !51
  %22 = getelementptr inbounds nuw %"class.ncnn::Mat", ptr %21, i32 0, i32 6
  %23 = load i32, ptr %22, align 4, !tbaa !63
  %24 = load ptr, ptr %5, align 8, !tbaa !51
  %25 = getelementptr inbounds nuw %"class.ncnn::Mat", ptr %24, i32 0, i32 7
  %26 = load i32, ptr %25, align 8, !tbaa !52
  %27 = load ptr, ptr %8, align 8, !tbaa !49
  %28 = getelementptr inbounds nuw %"class.ncnn::Option", ptr %27, i32 0, i32 3
  %29 = load ptr, ptr %28, align 8, !tbaa !55
  call void @_ZN4ncnn3Mat6createEiimiPNS_9AllocatorE(ptr noundef nonnull align 8 dereferenceable(72) %20, i32 noundef %23, i32 noundef %26, i64 noundef 1, i32 noundef 1, ptr noundef %29)
  %30 = load ptr, ptr %7, align 8, !tbaa !51
  %31 = load ptr, ptr %5, align 8, !tbaa !51
  %32 = getelementptr inbounds nuw %"class.ncnn::Mat", ptr %31, i32 0, i32 7
  %33 = load i32, ptr %32, align 8, !tbaa !52
  %34 = load ptr, ptr %8, align 8, !tbaa !49
  %35 = getelementptr inbounds nuw %"class.ncnn::Option", ptr %34, i32 0, i32 3
  %36 = load ptr, ptr %35, align 8, !tbaa !55
  call void @_ZN4ncnn3Mat6createEimiPNS_9AllocatorE(ptr noundef nonnull align 8 dereferenceable(72) %30, i32 noundef %33, i64 noundef 4, i32 noundef 1, ptr noundef %36)
  call void @llvm.lifetime.start.p0(i64 4, ptr %9) #11
  store i32 0, ptr %9, align 4, !tbaa !44
  br label %37

37:                                               ; preds = %80, %4
  %38 = load i32, ptr %9, align 4, !tbaa !44
  %39 = load ptr, ptr %6, align 8, !tbaa !51
  %40 = getelementptr inbounds nuw %"class.ncnn::Mat", ptr %39, i32 0, i32 7
  %41 = load i32, ptr %40, align 8, !tbaa !52
  %42 = icmp slt i32 %38, %41
  br i1 %42, label %44, label %43

43:                                               ; preds = %37
  store i32 2, ptr %10, align 4
  call void @llvm.lifetime.end.p0(i64 4, ptr %9) #11
  br label %83

44:                                               ; preds = %37
  call void @llvm.lifetime.start.p0(i64 8, ptr %11) #11
  %45 = load ptr, ptr %5, align 8, !tbaa !51
  %46 = load i32, ptr %9, align 4, !tbaa !44
  %47 = call noundef ptr @_ZNK4ncnn3Mat3rowEi(ptr noundef nonnull align 8 dereferenceable(72) %45, i32 noundef %46)
  store ptr %47, ptr %11, align 8, !tbaa !69
  call void @llvm.lifetime.start.p0(i64 4, ptr %12) #11
  store float 0.000000e+00, ptr %12, align 4, !tbaa !45
  call void @llvm.lifetime.start.p0(i64 4, ptr %13) #11
  store i32 0, ptr %13, align 4, !tbaa !44
  br label %48

48:                                               ; preds = %64, %44
  %49 = load i32, ptr %13, align 4, !tbaa !44
  %50 = load ptr, ptr %6, align 8, !tbaa !51
  %51 = getelementptr inbounds nuw %"class.ncnn::Mat", ptr %50, i32 0, i32 6
  %52 = load i32, ptr %51, align 4, !tbaa !63
  %53 = icmp slt i32 %49, %52
  br i1 %53, label %55, label %54

54:                                               ; preds = %48
  store i32 5, ptr %10, align 4
  call void @llvm.lifetime.end.p0(i64 4, ptr %13) #11
  br label %67

55:                                               ; preds = %48
  call void @llvm.lifetime.start.p0(i64 4, ptr %14) #11
  %56 = load ptr, ptr %11, align 8, !tbaa !69
  %57 = load i32, ptr %13, align 4, !tbaa !44
  %58 = sext i32 %57 to i64
  %59 = getelementptr inbounds float, ptr %56, i64 %58
  %60 = load float, ptr %59, align 4, !tbaa !45
  %61 = call fast noundef nofpclass(nan inf) float @_ZSt4fabsf(float noundef nofpclass(nan inf) %60)
  store float %61, ptr %14, align 4, !tbaa !45
  %62 = call noundef nonnull align 4 dereferenceable(4) ptr @_ZSt3maxIfERKT_S2_S2_(ptr noundef nonnull align 4 dereferenceable(4) %12, ptr noundef nonnull align 4 dereferenceable(4) %14)
  %63 = load float, ptr %62, align 4, !tbaa !45
  store float %63, ptr %12, align 4, !tbaa !45
  call void @llvm.lifetime.end.p0(i64 4, ptr %14) #11
  br label %64

64:                                               ; preds = %55
  %65 = load i32, ptr %13, align 4, !tbaa !44
  %66 = add nsw i32 %65, 1
  store i32 %66, ptr %13, align 4, !tbaa !44
  br label %48, !llvm.loop !132

67:                                               ; preds = %54
  %68 = load float, ptr %12, align 4, !tbaa !45
  %69 = fcmp fast oeq float %68, 0.000000e+00
  br i1 %69, label %70, label %71

70:                                               ; preds = %67
  br label %74

71:                                               ; preds = %67
  %72 = load float, ptr %12, align 4, !tbaa !45
  %73 = fdiv fast float 1.270000e+02, %72
  br label %74

74:                                               ; preds = %71, %70
  %75 = phi fast float [ 1.000000e+00, %70 ], [ %73, %71 ]
  %76 = load ptr, ptr %7, align 8, !tbaa !51
  %77 = load i32, ptr %9, align 4, !tbaa !44
  %78 = sext i32 %77 to i64
  %79 = call noundef nonnull align 4 dereferenceable(4) ptr @_ZN4ncnn3MatixEm(ptr noundef nonnull align 8 dereferenceable(72) %76, i64 noundef %78)
  store float %75, ptr %79, align 4, !tbaa !45
  call void @llvm.lifetime.end.p0(i64 4, ptr %12) #11
  call void @llvm.lifetime.end.p0(i64 8, ptr %11) #11
  br label %80

80:                                               ; preds = %74
  %81 = load i32, ptr %9, align 4, !tbaa !44
  %82 = add nsw i32 %81, 1
  store i32 %82, ptr %9, align 4, !tbaa !44
  br label %37, !llvm.loop !133

83:                                               ; preds = %43
  call void @llvm.lifetime.start.p0(i64 4, ptr %15) #11
  store i32 0, ptr %15, align 4, !tbaa !44
  br label %84

84:                                               ; preds = %127, %83
  %85 = load i32, ptr %15, align 4, !tbaa !44
  %86 = load ptr, ptr %6, align 8, !tbaa !51
  %87 = getelementptr inbounds nuw %"class.ncnn::Mat", ptr %86, i32 0, i32 7
  %88 = load i32, ptr %87, align 8, !tbaa !52
  %89 = icmp slt i32 %85, %88
  br i1 %89, label %91, label %90

90:                                               ; preds = %84
  store i32 8, ptr %10, align 4
  call void @llvm.lifetime.end.p0(i64 4, ptr %15) #11
  br label %130

91:                                               ; preds = %84
  call void @llvm.lifetime.start.p0(i64 8, ptr %16) #11
  %92 = load ptr, ptr %5, align 8, !tbaa !51
  %93 = load i32, ptr %15, align 4, !tbaa !44
  %94 = call noundef ptr @_ZNK4ncnn3Mat3rowEi(ptr noundef nonnull align 8 dereferenceable(72) %92, i32 noundef %93)
  store ptr %94, ptr %16, align 8, !tbaa !69
  call void @llvm.lifetime.start.p0(i64 8, ptr %17) #11
  %95 = load ptr, ptr %6, align 8, !tbaa !51
  %96 = load i32, ptr %15, align 4, !tbaa !44
  %97 = call noundef ptr @_ZN4ncnn3Mat3rowIaEEPT_i(ptr noundef nonnull align 8 dereferenceable(72) %95, i32 noundef %96)
  store ptr %97, ptr %17, align 8, !tbaa !74
  call void @llvm.lifetime.start.p0(i64 4, ptr %18) #11
  %98 = load ptr, ptr %7, align 8, !tbaa !51
  %99 = load i32, ptr %15, align 4, !tbaa !44
  %100 = sext i32 %99 to i64
  %101 = call noundef nonnull align 4 dereferenceable(4) ptr @_ZN4ncnn3MatixEm(ptr noundef nonnull align 8 dereferenceable(72) %98, i64 noundef %100)
  %102 = load float, ptr %101, align 4, !tbaa !45
  store float %102, ptr %18, align 4, !tbaa !45
  call void @llvm.lifetime.start.p0(i64 4, ptr %19) #11
  store i32 0, ptr %19, align 4, !tbaa !44
  br label %103

103:                                              ; preds = %123, %91
  %104 = load i32, ptr %19, align 4, !tbaa !44
  %105 = load ptr, ptr %6, align 8, !tbaa !51
  %106 = getelementptr inbounds nuw %"class.ncnn::Mat", ptr %105, i32 0, i32 6
  %107 = load i32, ptr %106, align 4, !tbaa !63
  %108 = icmp slt i32 %104, %107
  br i1 %108, label %110, label %109

109:                                              ; preds = %103
  store i32 11, ptr %10, align 4
  call void @llvm.lifetime.end.p0(i64 4, ptr %19) #11
  br label %126

110:                                              ; preds = %103
  %111 = load ptr, ptr %16, align 8, !tbaa !69
  %112 = load i32, ptr %19, align 4, !tbaa !44
  %113 = sext i32 %112 to i64
  %114 = getelementptr inbounds float, ptr %111, i64 %113
  %115 = load float, ptr %114, align 4, !tbaa !45
  %116 = load float, ptr %18, align 4, !tbaa !45
  %117 = fmul fast float %115, %116
  %118 = call noundef signext i8 @_ZN4ncnnL10float2int8Ef(float noundef nofpclass(nan inf) %117)
  %119 = load ptr, ptr %17, align 8, !tbaa !74
  %120 = load i32, ptr %19, align 4, !tbaa !44
  %121 = sext i32 %120 to i64
  %122 = getelementptr inbounds i8, ptr %119, i64 %121
  store i8 %118, ptr %122, align 1, !tbaa !75
  br label %123

123:                                              ; preds = %110
  %124 = load i32, ptr %19, align 4, !tbaa !44
  %125 = add nsw i32 %124, 1
  store i32 %125, ptr %19, align 4, !tbaa !44
  br label %103, !llvm.loop !134

126:                                              ; preds = %109
  call void @llvm.lifetime.end.p0(i64 4, ptr %18) #11
  call void @llvm.lifetime.end.p0(i64 8, ptr %17) #11
  call void @llvm.lifetime.end.p0(i64 8, ptr %16) #11
  br label %127

127:                                              ; preds = %126
  %128 = load i32, ptr %15, align 4, !tbaa !44
  %129 = add nsw i32 %128, 1
  store i32 %129, ptr %15, align 4, !tbaa !44
  br label %84, !llvm.loop !135

130:                                              ; preds = %90
  ret void
}