; Function Attrs: mustprogress norecurse uwtable
define internal fastcc void @_ZN4ncnnL25dynamic_quantize_2d_per_hERKNS_3MatERS0_S3_RKNS_6OptionE(ptr noundef nonnull readonly align 8 captures(none) dereferenceable(72) %0, ptr noundef nonnull align 8 dereferenceable(72) %1, ptr noundef nonnull align 8 dereferenceable(72) %2, ptr noundef nonnull readonly align 8 captures(none) dereferenceable(64) %3) unnamed_addr #11 {
  %5 = getelementptr inbounds nuw i8, ptr %0, i64 44
  %6 = load i32, ptr %5, align 4, !tbaa !45
  %7 = getelementptr inbounds nuw i8, ptr %0, i64 48
  %8 = load i32, ptr %7, align 8, !tbaa !46
  %9 = getelementptr inbounds nuw i8, ptr %3, i64 16
  %10 = load ptr, ptr %9, align 8, !tbaa !56
  tail call void @_ZN4ncnn3Mat6createEiimiPNS_9AllocatorE(ptr noundef nonnull align 8 dereferenceable(72) %1, i32 noundef %6, i32 noundef %8, i64 noundef 1, i32 noundef 1, ptr noundef %10)
  %11 = load i32, ptr %7, align 8, !tbaa !46
  %12 = load ptr, ptr %9, align 8, !tbaa !56
  tail call void @_ZN4ncnn3Mat6createEimiPNS_9AllocatorE(ptr noundef nonnull align 8 dereferenceable(72) %2, i32 noundef %11, i64 noundef 4, i32 noundef 1, ptr noundef %12)
  %13 = getelementptr inbounds nuw i8, ptr %1, i64 48
  %14 = load i32, ptr %13, align 8, !tbaa !46
  %15 = icmp sgt i32 %14, 0
  br i1 %15, label %.lr.ph44, label %._crit_edge48

.lr.ph44:                                         ; preds = %4
  %16 = load ptr, ptr %0, align 8, !tbaa !16
  %17 = load i32, ptr %5, align 4, !tbaa !45
  %18 = sext i32 %17 to i64
  %19 = getelementptr inbounds nuw i8, ptr %0, i64 16
  %20 = load i64, ptr %19, align 8, !tbaa !42
  %factor.op.mul = mul i64 %20, %18
  %21 = getelementptr inbounds nuw i8, ptr %1, i64 44
  %22 = load i32, ptr %21, align 4, !tbaa !45
  %23 = icmp sgt i32 %22, 0
  %24 = load ptr, ptr %2, align 8, !tbaa !16
  %wide.trip.count60 = zext nneg i32 %14 to i64
  br i1 %23, label %.lr.ph.us.preheader, label %.lr.ph44.split

.lr.ph.us.preheader:                              ; preds = %.lr.ph44
  %wide.trip.count55 = zext nneg i32 %22 to i64
  br label %.lr.ph.us

.lr.ph.us:                                        ; preds = %.lr.ph.us.preheader, %._crit_edge.us
  %indvars.iv57 = phi i64 [ 0, %.lr.ph.us.preheader ], [ %indvars.iv.next58, %._crit_edge.us ]
  %.reass.us = mul i64 %factor.op.mul, %indvars.iv57
  %25 = getelementptr inbounds nuw i8, ptr %16, i64 %.reass.us
  br label %26

26:                                               ; preds = %.lr.ph.us, %26
  %indvars.iv52 = phi i64 [ 0, %.lr.ph.us ], [ %indvars.iv.next53, %26 ]
  %.03940.us = phi float [ 0.000000e+00, %.lr.ph.us ], [ %.sroa.speculated.us, %26 ]
  %27 = getelementptr inbounds nuw float, ptr %25, i64 %indvars.iv52
  %28 = load float, ptr %27, align 4, !tbaa !49
  %29 = tail call fast noundef float @llvm.fabs.f32(float %28)
  %30 = fcmp fast olt float %.03940.us, %29
  %.sroa.speculated.us = select i1 %30, float %29, float %.03940.us
  %indvars.iv.next53 = add nuw nsw i64 %indvars.iv52, 1
  %exitcond56.not = icmp eq i64 %indvars.iv.next53, %wide.trip.count55
  br i1 %exitcond56.not, label %._crit_edge.us, label %26, !llvm.loop !196

._crit_edge.us:                                   ; preds = %26
  %31 = fcmp fast oeq float %.sroa.speculated.us, 0.000000e+00
  %32 = fdiv fast float 1.270000e+02, %.sroa.speculated.us
  %33 = select fast i1 %31, float 1.000000e+00, float %32
  %34 = getelementptr inbounds nuw float, ptr %24, i64 %indvars.iv57
  store float %33, ptr %34, align 4, !tbaa !49
  %indvars.iv.next58 = add nuw nsw i64 %indvars.iv57, 1
  %exitcond61.not = icmp eq i64 %indvars.iv.next58, %wide.trip.count60
  br i1 %exitcond61.not, label %.lr.ph47, label %.lr.ph.us, !llvm.loop !197

.lr.ph47:                                         ; preds = %.lr.ph44.split, %._crit_edge.us
  %35 = getelementptr inbounds nuw i8, ptr %0, i64 16
  %36 = getelementptr inbounds nuw i8, ptr %1, i64 44
  %37 = getelementptr inbounds nuw i8, ptr %1, i64 16
  %38 = load i32, ptr %36, align 4, !tbaa !45
  %39 = icmp sgt i32 %38, 0
  br i1 %39, label %.lr.ph47.split, label %._crit_edge48

.lr.ph44.split:                                   ; preds = %.lr.ph44, %.lr.ph44.split
  %indvars.iv = phi i64 [ %indvars.iv.next, %.lr.ph44.split ], [ 0, %.lr.ph44 ]
  %40 = getelementptr inbounds nuw float, ptr %24, i64 %indvars.iv
  store float 1.000000e+00, ptr %40, align 4, !tbaa !49
  %indvars.iv.next = add nuw nsw i64 %indvars.iv, 1
  %exitcond.not = icmp eq i64 %indvars.iv.next, %wide.trip.count60
  br i1 %exitcond.not, label %.lr.ph47, label %.lr.ph44.split, !llvm.loop !197

._crit_edge48:                                    ; preds = %._crit_edge, %4, %.lr.ph47
  ret void

.lr.ph47.split:                                   ; preds = %.lr.ph47, %._crit_edge
  %41 = phi i32 [ %60, %._crit_edge ], [ %14, %.lr.ph47 ]
  %42 = phi i32 [ %61, %._crit_edge ], [ %38, %.lr.ph47 ]
  %indvars.iv65 = phi i64 [ %indvars.iv.next66, %._crit_edge ], [ 0, %.lr.ph47 ]
  %43 = load ptr, ptr %0, align 8, !tbaa !16
  %44 = load i32, ptr %5, align 4, !tbaa !45
  %45 = sext i32 %44 to i64
  %46 = mul nsw i64 %indvars.iv65, %45
  %47 = load i64, ptr %35, align 8, !tbaa !42
  %48 = mul i64 %46, %47
  %49 = getelementptr inbounds nuw i8, ptr %43, i64 %48
  %50 = load ptr, ptr %1, align 8, !tbaa !16
  %51 = sext i32 %42 to i64
  %52 = mul nsw i64 %indvars.iv65, %51
  %53 = load i64, ptr %37, align 8, !tbaa !42
  %54 = mul i64 %52, %53
  %55 = getelementptr inbounds nuw i8, ptr %50, i64 %54
  %56 = load ptr, ptr %2, align 8, !tbaa !16
  %57 = getelementptr inbounds nuw float, ptr %56, i64 %indvars.iv65
  %58 = load float, ptr %57, align 4, !tbaa !49
  %59 = icmp sgt i32 %42, 0
  br i1 %59, label %.lr.ph, label %._crit_edge

._crit_edge.loopexit:                             ; preds = %.lr.ph
  %.pre = load i32, ptr %13, align 8, !tbaa !46
  br label %._crit_edge

._crit_edge:                                      ; preds = %._crit_edge.loopexit, %.lr.ph47.split
  %60 = phi i32 [ %.pre, %._crit_edge.loopexit ], [ %41, %.lr.ph47.split ]
  %61 = phi i32 [ %70, %._crit_edge.loopexit ], [ %42, %.lr.ph47.split ]
  %indvars.iv.next66 = add nuw nsw i64 %indvars.iv65, 1
  %62 = sext i32 %60 to i64
  %63 = icmp slt i64 %indvars.iv.next66, %62
  br i1 %63, label %.lr.ph47.split, label %._crit_edge48, !llvm.loop !198

.lr.ph:                                           ; preds = %.lr.ph47.split, %.lr.ph
  %indvars.iv62 = phi i64 [ %indvars.iv.next63, %.lr.ph ], [ 0, %.lr.ph47.split ]
  %64 = getelementptr inbounds nuw float, ptr %49, i64 %indvars.iv62
  %65 = load float, ptr %64, align 4, !tbaa !49
  %66 = fmul fast float %65, %58
  %67 = tail call fast noundef float @llvm.round.f32(float %66)
  %68 = fptosi float %67 to i32
  %spec.select5.i = tail call i32 @llvm.smax.i32(i32 %68, i32 -127)
  %.06.i = tail call i32 @llvm.smin.i32(i32 %spec.select5.i, i32 127)
  %.0.i = trunc nsw i32 %.06.i to i8
  %69 = getelementptr inbounds nuw i8, ptr %55, i64 %indvars.iv62
  store i8 %.0.i, ptr %69, align 1, !tbaa !71
  %indvars.iv.next63 = add nuw nsw i64 %indvars.iv62, 1
  %70 = load i32, ptr %36, align 4, !tbaa !45
  %71 = sext i32 %70 to i64
  %72 = icmp slt i64 %indvars.iv.next63, %71
  br i1 %72, label %.lr.ph, label %._crit_edge.loopexit, !llvm.loop !199
}